; Function Attrs: mustprogress uwtable
define void @_ZN9grpc_core11ChannelArgs5FromCEPK17grpc_channel_args(ptr dead_on_unwind noalias writable sret(%"class.grpc_core::ChannelArgs") align 8 %0, ptr noundef readonly %1) local_unnamed_addr #9 align 2 personality ptr @__gxx_personality_v0 {
  %3 = alloca %"class.grpc_core::ChannelArgs", align 8
  tail call void @_ZN9grpc_core11ChannelArgsC1Ev(ptr noundef nonnull align 8 dereferenceable(8) %0)
  %.not = icmp eq ptr %1, null
  br i1 %.not, label %.loopexit, label %.preheader

.preheader:                                       ; preds = %2
  %4 = load i64, ptr %1, align 8, !tbaa !51
  %.not10 = icmp eq i64 %4, 0
  br i1 %.not10, label %.loopexit, label %.lr.ph

.lr.ph:                                           ; preds = %.preheader
  %5 = getelementptr inbounds nuw i8, ptr %1, i64 8
  br label %6

6:                                                ; preds = %.lr.ph, %_ZN9grpc_core11ChannelArgsaSEOS0_.exit
  %.09 = phi i64 [ 0, %.lr.ph ], [ %16, %_ZN9grpc_core11ChannelArgsaSEOS0_.exit ]
  call void @llvm.lifetime.start.p0(i64 8, ptr nonnull %3) #37
  %7 = load ptr, ptr %5, align 8, !tbaa !53
  %8 = getelementptr inbounds nuw %struct.grpc_arg, ptr %7, i64 %.09
  invoke void @_ZNK9grpc_core11ChannelArgs3SetE8grpc_arg(ptr dead_on_unwind nonnull writable sret(%"class.grpc_core::ChannelArgs") align 8 %3, ptr noundef nonnull align 8 dereferenceable(8) %0, ptr noundef nonnull byval(%struct.grpc_arg) align 8 %8)
          to label %9 unwind label %19

9:                                                ; preds = %6
  %10 = load ptr, ptr %3, align 8, !tbaa !25
  store ptr null, ptr %3, align 8, !tbaa !25
  %11 = load ptr, ptr %0, align 8, !tbaa !25
  store ptr %10, ptr %0, align 8, !tbaa !25
  %.not.i.i.i.i = icmp eq ptr %11, null
  br i1 %.not.i.i.i.i, label %_ZN9grpc_core11ChannelArgsaSEOS0_.exit, label %12

12:                                               ; preds = %9
  %13 = atomicrmw sub ptr %11, i64 1 acq_rel, align 8
  %14 = icmp eq i64 %13, 1
  br i1 %14, label %15, label %_ZN9grpc_core11ChannelArgsaSEOS0_.exit, !prof !24

15:                                               ; preds = %12
  call void @_ZNK9grpc_core11UnrefDeleteclIKNS_3AVLINS_21RefCountedStringValueENS_11ChannelArgs5ValueEE4NodeEEEvPT_(ptr noundef nonnull align 8 dereferenceable(8) %11, ptr noundef nonnull align 8 dereferenceable(8) %11)
  br label %_ZN9grpc_core11ChannelArgsaSEOS0_.exit

_ZN9grpc_core11ChannelArgsaSEOS0_.exit:           ; preds = %9, %12, %15
  call void @_ZN9grpc_core11ChannelArgsD1Ev(ptr noundef nonnull align 8 dereferenceable(8) %3) #37
  call void @llvm.lifetime.end.p0(i64 8, ptr nonnull %3) #37
  %16 = add nuw i64 %.09, 1
  %17 = load i64, ptr %1, align 8, !tbaa !51
  %18 = icmp ult i64 %16, %17
  br i1 %18, label %6, label %.loopexit, !llvm.loop !54

19:                                               ; preds = %6
  %20 = landingpad { ptr, i32 }
          cleanup
  call void @llvm.lifetime.end.p0(i64 8, ptr nonnull %3) #37
  call void @_ZN9grpc_core11ChannelArgsD1Ev(ptr noundef nonnull align 8 dereferenceable(8) %0) #37
  resume { ptr, i32 } %20

.loopexit:                                        ; preds = %_ZN9grpc_core11ChannelArgsaSEOS0_.exit, %.preheader, %2
  ret void
}